target datalayout = "e-m:e-p270:32:32-p271:32:32-p272:64:64-i64:64-i128:128-f80:128-n8:16:32:64-S128"
target triple = "x86_64-pc-linux-gnu"

%struct.FT_ListRec_ = type { ptr, ptr }
%struct.FT_CharMapRec_ = type { ptr, i32, i16, i16 }
%struct.T1_FaceRec_ = type { %struct.FT_FaceRec_, %struct.T1_FontRec_, ptr, ptr, ptr, [2 x %struct.FT_CharMapRec_], [2 x ptr], ptr, i32, i32, i32, ptr, ptr }
%struct.FT_FaceRec_ = type { i64, i64, i64, i64, i64, ptr, ptr, i32, ptr, i32, ptr, %struct.FT_Generic_, %struct.FT_BBox_, i16, i16, i16, i16, i16, i16, i16, i16, ptr, ptr, ptr, ptr, ptr, ptr, %struct.FT_ListRec_, %struct.FT_Generic_, ptr, ptr }
%struct.FT_BBox_ = type { i64, i64, i64, i64 }
%struct.FT_Generic_ = type { ptr, ptr }
%struct.T1_FontRec_ = type { %struct.PS_FontInfoRec_, %struct.PS_FontExtraRec_, %struct.PS_PrivateRec_, ptr, i32, %struct.T1_EncodingRecRec_, ptr, ptr, ptr, i32, ptr, ptr, ptr, i32, ptr, ptr, ptr, i8, i8, %struct.FT_Matrix_, %struct.FT_Vector_, %struct.FT_BBox_, i64, i64 }
%struct.PS_FontInfoRec_ = type { ptr, ptr, ptr, ptr, ptr, i64, i8, i16, i16 }
%struct.PS_FontExtraRec_ = type { i16 }
%struct.PS_PrivateRec_ = type { i32, i32, i8, i8, i8, i8, [14 x i16], [10 x i16], [14 x i16], [10 x i16], i64, i32, i32, [1 x i16], [1 x i16], i8, i8, i8, i8, [13 x i16], [13 x i16], i64, i64, i64, [2 x i16] }
%struct.T1_EncodingRecRec_ = type { i32, i32, i32, ptr, ptr }
%struct.FT_Matrix_ = type { i64, i64, i64, i64 }
%struct.FT_Vector_ = type { i64, i64 }
%struct.PS_BlendRec_ = type { i32, i32, [4 x ptr], [16 x ptr], [4 x %struct.PS_DesignMap_], ptr, ptr, [17 x ptr], [17 x ptr], i64, [17 x ptr], [16 x i32], i32 }
%struct.PS_DesignMap_ = type { i8, ptr, ptr }
%struct.T1_Loader_ = type { %struct.T1_ParserRec_, i32, %struct.PS_TableRec_, i32, %struct.PS_TableRec_, %struct.PS_TableRec_, %struct.PS_TableRec_, i32, %struct.PS_TableRec_, ptr, i8, i32 }
%struct.T1_ParserRec_ = type { %struct.PS_ParserRec_, ptr, ptr, i64, ptr, i64, i8, i8, i8 }
%struct.PS_ParserRec_ = type { ptr, ptr, ptr, i32, ptr, %struct.PS_Parser_FuncsRec_ }
%struct.PS_Parser_FuncsRec_ = type { ptr, ptr, ptr, ptr, ptr, ptr, ptr, ptr, ptr, ptr, ptr, ptr, ptr }
%struct.PS_TableRec_ = type { ptr, i64, i64, i64, i32, ptr, ptr, ptr, %struct.PS_Table_FuncsRec_ }
%struct.PS_Table_FuncsRec_ = type { ptr, ptr, ptr, ptr }
%struct.T1_TokenRec_ = type { ptr, ptr, i32 }

; Function Attrs: nounwind uwtable
define internal void @parse_blend_design_positions(ptr noundef %0, ptr noundef %1) #0 {
  %3 = alloca ptr, align 8
  %4 = alloca ptr, align 8
  %5 = alloca ptr, align 8
  %6 = alloca ptr, align 8
  %7 = alloca [16 x %struct.T1_TokenRec_], align 16
  %8 = alloca i32, align 4
  %9 = alloca i32, align 4
  %10 = alloca ptr, align 8
  %11 = alloca ptr, align 8
  %12 = alloca i32, align 4
  %13 = alloca [16 x ptr], align 16
  %14 = alloca ptr, align 8
  %15 = alloca ptr, align 8
  %16 = alloca i32, align 4
  %17 = alloca i32, align 4
  %18 = alloca ptr, align 8
  %19 = alloca [4 x %struct.T1_TokenRec_], align 16
  %20 = alloca ptr, align 8
  %21 = alloca i32, align 4
  %22 = alloca i32, align 4
  %23 = alloca ptr, align 8
  store ptr %0, ptr %3, align 8
  store ptr %1, ptr %4, align 8
  %24 = load ptr, ptr %3, align 8
  store ptr %24, ptr %5, align 8
  %25 = load ptr, ptr %4, align 8
  store ptr %25, ptr %6, align 8
  store i32 0, ptr %9, align 4
  %26 = load ptr, ptr %6, align 8
  %27 = getelementptr inbounds %struct.T1_Loader_, ptr %26, i32 0, i32 0
  store ptr %27, ptr %10, align 8
  %28 = load ptr, ptr %3, align 8
  %29 = getelementptr inbounds %struct.FT_FaceRec_, ptr %28, i32 0, i32 25
  %30 = load ptr, ptr %29, align 8
  store ptr %30, ptr %11, align 8
  store i32 0, ptr %12, align 4
  %31 = getelementptr inbounds [16 x ptr], ptr %13, i64 0, i64 0
  store ptr null, ptr %31, align 16
  %32 = load ptr, ptr %10, align 8
  %33 = getelementptr inbounds %struct.T1_ParserRec_, ptr %32, i32 0, i32 0
  %34 = getelementptr inbounds %struct.PS_ParserRec_, ptr %33, i32 0, i32 5
  %35 = getelementptr inbounds %struct.PS_Parser_FuncsRec_, ptr %34, i32 0, i32 10
  %36 = load ptr, ptr %35, align 8
  %37 = load ptr, ptr %10, align 8
  %38 = getelementptr inbounds %struct.T1_ParserRec_, ptr %37, i32 0, i32 0
  %39 = getelementptr inbounds [16 x %struct.T1_TokenRec_], ptr %7, i64 0, i64 0
  call void %36(ptr noundef %38, ptr noundef %39, i32 noundef 16, ptr noundef %8)
  %40 = load i32, ptr %8, align 4
  %41 = icmp slt i32 %40, 0
  br i1 %41, label %42, label %43

42:                                               ; preds = %2
  store i32 162, ptr %12, align 4
  br label %255

43:                                               ; preds = %2
  %44 = load i32, ptr %8, align 4
  %45 = icmp eq i32 %44, 0
  br i1 %45, label %49, label %46

46:                                               ; preds = %43
  %47 = load i32, ptr %8, align 4
  %48 = icmp sgt i32 %47, 16
  br i1 %48, label %49, label %52

49:                                               ; preds = %46, %43
  br label %50

50:                                               ; preds = %49
  br label %51

51:                                               ; preds = %50
  store i32 3, ptr %12, align 4
  br label %255

52:                                               ; preds = %46
  %53 = load ptr, ptr %10, align 8
  %54 = getelementptr inbounds %struct.T1_ParserRec_, ptr %53, i32 0, i32 0
  %55 = getelementptr inbounds %struct.PS_ParserRec_, ptr %54, i32 0, i32 0
  %56 = load ptr, ptr %55, align 8
  store ptr %56, ptr %14, align 8
  %57 = load ptr, ptr %10, align 8
  %58 = getelementptr inbounds %struct.T1_ParserRec_, ptr %57, i32 0, i32 0
  %59 = getelementptr inbounds %struct.PS_ParserRec_, ptr %58, i32 0, i32 2
  %60 = load ptr, ptr %59, align 8
  store ptr %60, ptr %15, align 8
  br label %61

61:                                               ; preds = %52
  br label %62

62:                                               ; preds = %61
  store i32 0, ptr %16, align 4
  br label %63

63:                                               ; preds = %198, %62
  %64 = load i32, ptr %16, align 4
  %65 = load i32, ptr %8, align 4
  %66 = icmp slt i32 %64, %65
  br i1 %66, label %67, label %201

67:                                               ; preds = %63
  %68 = getelementptr inbounds [16 x %struct.T1_TokenRec_], ptr %7, i64 0, i64 0
  %69 = load i32, ptr %16, align 4
  %70 = sext i32 %69 to i64
  %71 = getelementptr inbounds %struct.T1_TokenRec_, ptr %68, i64 %70
  store ptr %71, ptr %20, align 8
  %72 = load ptr, ptr %20, align 8
  %73 = getelementptr inbounds %struct.T1_TokenRec_, ptr %72, i32 0, i32 0
  %74 = load ptr, ptr %73, align 8
  %75 = load ptr, ptr %10, align 8
  %76 = getelementptr inbounds %struct.T1_ParserRec_, ptr %75, i32 0, i32 0
  %77 = getelementptr inbounds %struct.PS_ParserRec_, ptr %76, i32 0, i32 0
  store ptr %74, ptr %77, align 8
  %78 = load ptr, ptr %20, align 8
  %79 = getelementptr inbounds %struct.T1_TokenRec_, ptr %78, i32 0, i32 1
  %80 = load ptr, ptr %79, align 8
  %81 = load ptr, ptr %10, align 8
  %82 = getelementptr inbounds %struct.T1_ParserRec_, ptr %81, i32 0, i32 0
  %83 = getelementptr inbounds %struct.PS_ParserRec_, ptr %82, i32 0, i32 2
  store ptr %80, ptr %83, align 8
  %84 = load ptr, ptr %10, align 8
  %85 = getelementptr inbounds %struct.T1_ParserRec_, ptr %84, i32 0, i32 0
  %86 = getelementptr inbounds %struct.PS_ParserRec_, ptr %85, i32 0, i32 5
  %87 = getelementptr inbounds %struct.PS_Parser_FuncsRec_, ptr %86, i32 0, i32 10
  %88 = load ptr, ptr %87, align 8
  %89 = load ptr, ptr %10, align 8
  %90 = getelementptr inbounds %struct.T1_ParserRec_, ptr %89, i32 0, i32 0
  %91 = getelementptr inbounds [4 x %struct.T1_TokenRec_], ptr %19, i64 0, i64 0
  call void %88(ptr noundef %90, ptr noundef %91, i32 noundef 4, ptr noundef %22)
  %92 = load i32, ptr %16, align 4
  %93 = icmp eq i32 %92, 0
  br i1 %93, label %94, label %143

94:                                               ; preds = %67
  %95 = load i32, ptr %22, align 4
  %96 = icmp sle i32 %95, 0
  br i1 %96, label %100, label %97

97:                                               ; preds = %94
  %98 = load i32, ptr %22, align 4
  %99 = icmp sgt i32 %98, 4
  br i1 %99, label %100, label %103

100:                                              ; preds = %97, %94
  br label %101

101:                                              ; preds = %100
  br label %102

102:                                              ; preds = %101
  store i32 3, ptr %12, align 4
  br label %255

103:                                              ; preds = %97
  %104 = load i32, ptr %22, align 4
  store i32 %104, ptr %9, align 4
  %105 = load ptr, ptr %5, align 8
  %106 = load i32, ptr %8, align 4
  %107 = load i32, ptr %9, align 4
  %108 = call i32 @t1_allocate_blend(ptr noundef %105, i32 noundef %106, i32 noundef %107)
  store i32 %108, ptr %12, align 4
  %109 = load i32, ptr %12, align 4
  %110 = icmp ne i32 %109, 0
  br i1 %110, label %111, label %112

111:                                              ; preds = %103
  br label %255

112:                                              ; preds = %103
  %113 = load ptr, ptr %11, align 8
  %114 = load i32, ptr %8, align 4
  %115 = load i32, ptr %9, align 4
  %116 = mul nsw i32 %114, %115
  %117 = sext i32 %116 to i64
  %118 = call ptr @ft_mem_qrealloc(ptr noundef %113, i64 noundef 8, i64 noundef 0, i64 noundef %117, ptr noundef null, ptr noundef %12)
  %119 = getelementptr inbounds [16 x ptr], ptr %13, i64 0, i64 0
  store ptr %118, ptr %119, align 16
  %120 = load i32, ptr %12, align 4
  %121 = icmp ne i32 %120, 0
  br i1 %121, label %122, label %123

122:                                              ; preds = %112
  br label %255

123:                                              ; preds = %112
  store i32 1, ptr %17, align 4
  br label %124

124:                                              ; preds = %139, %123
  %125 = load i32, ptr %17, align 4
  %126 = load i32, ptr %8, align 4
  %127 = icmp slt i32 %125, %126
  br i1 %127, label %128, label %142

128:                                              ; preds = %124
  %129 = getelementptr inbounds [16 x ptr], ptr %13, i64 0, i64 0
  %130 = load ptr, ptr %129, align 16
  %131 = load i32, ptr %9, align 4
  %132 = load i32, ptr %17, align 4
  %133 = mul nsw i32 %131, %132
  %134 = sext i32 %133 to i64
  %135 = getelementptr inbounds i64, ptr %130, i64 %134
  %136 = load i32, ptr %17, align 4
  %137 = sext i32 %136 to i64
  %138 = getelementptr inbounds [16 x ptr], ptr %13, i64 0, i64 %137
  store ptr %135, ptr %138, align 8
  br label %139

139:                                              ; preds = %128
  %140 = load i32, ptr %17, align 4
  %141 = add nsw i32 %140, 1
  store i32 %141, ptr %17, align 4
  br label %124, !llvm.loop !47

142:                                              ; preds = %124
  br label %151

143:                                              ; preds = %67
  %144 = load i32, ptr %22, align 4
  %145 = load i32, ptr %9, align 4
  %146 = icmp ne i32 %144, %145
  br i1 %146, label %147, label %150

147:                                              ; preds = %143
  br label %148

148:                                              ; preds = %147
  br label %149

149:                                              ; preds = %148
  store i32 3, ptr %12, align 4
  br label %255

150:                                              ; preds = %143
  br label %151

151:                                              ; preds = %150, %142
  br label %152

152:                                              ; preds = %151
  br label %153

153:                                              ; preds = %152
  store i32 0, ptr %21, align 4
  br label %154

154:                                              ; preds = %192, %153
  %155 = load i32, ptr %21, align 4
  %156 = load i32, ptr %22, align 4
  %157 = icmp slt i32 %155, %156
  br i1 %157, label %158, label %195

158:                                              ; preds = %154
  %159 = getelementptr inbounds [4 x %struct.T1_TokenRec_], ptr %19, i64 0, i64 0
  %160 = load i32, ptr %21, align 4
  %161 = sext i32 %160 to i64
  %162 = getelementptr inbounds %struct.T1_TokenRec_, ptr %159, i64 %161
  store ptr %162, ptr %23, align 8
  %163 = load ptr, ptr %23, align 8
  %164 = getelementptr inbounds %struct.T1_TokenRec_, ptr %163, i32 0, i32 0
  %165 = load ptr, ptr %164, align 8
  %166 = load ptr, ptr %10, align 8
  %167 = getelementptr inbounds %struct.T1_ParserRec_, ptr %166, i32 0, i32 0
  %168 = getelementptr inbounds %struct.PS_ParserRec_, ptr %167, i32 0, i32 0
  store ptr %165, ptr %168, align 8
  %169 = load ptr, ptr %23, align 8
  %170 = getelementptr inbounds %struct.T1_TokenRec_, ptr %169, i32 0, i32 1
  %171 = load ptr, ptr %170, align 8
  %172 = load ptr, ptr %10, align 8
  %173 = getelementptr inbounds %struct.T1_ParserRec_, ptr %172, i32 0, i32 0
  %174 = getelementptr inbounds %struct.PS_ParserRec_, ptr %173, i32 0, i32 2
  store ptr %171, ptr %174, align 8
  %175 = load ptr, ptr %10, align 8
  %176 = getelementptr inbounds %struct.T1_ParserRec_, ptr %175, i32 0, i32 0
  %177 = getelementptr inbounds %struct.PS_ParserRec_, ptr %176, i32 0, i32 5
  %178 = getelementptr inbounds %struct.PS_Parser_FuncsRec_, ptr %177, i32 0, i32 5
  %179 = load ptr, ptr %178, align 8
  %180 = load ptr, ptr %10, align 8
  %181 = getelementptr inbounds %struct.T1_ParserRec_, ptr %180, i32 0, i32 0
  %182 = call i64 %179(ptr noundef %181, i32 noundef 0)
  %183 = load i32, ptr %16, align 4
  %184 = sext i32 %183 to i64
  %185 = getelementptr inbounds [16 x ptr], ptr %13, i64 0, i64 %184
  %186 = load ptr, ptr %185, align 8
  %187 = load i32, ptr %21, align 4
  %188 = sext i32 %187 to i64
  %189 = getelementptr inbounds i64, ptr %186, i64 %188
  store i64 %182, ptr %189, align 8
  br label %190

190:                                              ; preds = %158
  br label %191

191:                                              ; preds = %190
  br label %192

192:                                              ; preds = %191
  %193 = load i32, ptr %21, align 4
  %194 = add nsw i32 %193, 1
  store i32 %194, ptr %21, align 4
  br label %154, !llvm.loop !48

195:                                              ; preds = %154
  br label %196

196:                                              ; preds = %195
  br label %197

197:                                              ; preds = %196
  br label %198

198:                                              ; preds = %197
  %199 = load i32, ptr %16, align 4
  %200 = add nsw i32 %199, 1
  store i32 %200, ptr %16, align 4
  br label %63, !llvm.loop !49

201:                                              ; preds = %63
  br label %202

202:                                              ; preds = %201
  br label %203

203:                                              ; preds = %202
  %204 = load ptr, ptr %14, align 8
  %205 = load ptr, ptr %6, align 8
  %206 = getelementptr inbounds %struct.T1_Loader_, ptr %205, i32 0, i32 0
  %207 = getelementptr inbounds %struct.T1_ParserRec_, ptr %206, i32 0, i32 0
  %208 = getelementptr inbounds %struct.PS_ParserRec_, ptr %207, i32 0, i32 0
  store ptr %204, ptr %208, align 8
  %209 = load ptr, ptr %15, align 8
  %210 = load ptr, ptr %6, align 8
  %211 = getelementptr inbounds %struct.T1_Loader_, ptr %210, i32 0, i32 0
  %212 = getelementptr inbounds %struct.T1_ParserRec_, ptr %211, i32 0, i32 0
  %213 = getelementptr inbounds %struct.PS_ParserRec_, ptr %212, i32 0, i32 2
  store ptr %209, ptr %213, align 8
  %214 = load ptr, ptr %5, align 8
  %215 = getelementptr inbounds %struct.T1_FaceRec_, ptr %214, i32 0, i32 7
  %216 = load ptr, ptr %215, align 8
  store ptr %216, ptr %18, align 8
  %217 = load ptr, ptr %18, align 8
  %218 = getelementptr inbounds %struct.PS_BlendRec_, ptr %217, i32 0, i32 3
  %219 = getelementptr inbounds [16 x ptr], ptr %218, i64 0, i64 0
  %220 = load ptr, ptr %219, align 8
  %221 = icmp ne ptr %220, null
  br i1 %221, label %222, label %233

222:                                              ; preds = %203
  br label %223

223:                                              ; preds = %222
  %224 = load ptr, ptr %11, align 8
  %225 = load ptr, ptr %18, align 8
  %226 = getelementptr inbounds %struct.PS_BlendRec_, ptr %225, i32 0, i32 3
  %227 = getelementptr inbounds [16 x ptr], ptr %226, i64 0, i64 0
  %228 = load ptr, ptr %227, align 8
  call void @ft_mem_free(ptr noundef %224, ptr noundef %228)
  %229 = load ptr, ptr %18, align 8
  %230 = getelementptr inbounds %struct.PS_BlendRec_, ptr %229, i32 0, i32 3
  %231 = getelementptr inbounds [16 x ptr], ptr %230, i64 0, i64 0
  store ptr null, ptr %231, align 8
  br label %232

232:                                              ; preds = %223
  br label %233

233:                                              ; preds = %232, %203
  store i32 0, ptr %16, align 4
  br label %234

234:                                              ; preds = %251, %233
  %235 = load i32, ptr %16, align 4
  %236 = load i32, ptr %8, align 4
  %237 = icmp slt i32 %235, %236
  br i1 %237, label %238, label %254

238:                                              ; preds = %234
  %239 = load i32, ptr %16, align 4
  %240 = sext i32 %239 to i64
  %241 = getelementptr inbounds [16 x ptr], ptr %13, i64 0, i64 %240
  %242 = load ptr, ptr %241, align 8
  %243 = load ptr, ptr %18, align 8
  %244 = getelementptr inbounds %struct.PS_BlendRec_, ptr %243, i32 0, i32 3
  %245 = load i32, ptr %16, align 4
  %246 = sext i32 %245 to i64
  %247 = getelementptr inbounds [16 x ptr], ptr %244, i64 0, i64 %246
  store ptr %242, ptr %247, align 8
  %248 = load i32, ptr %16, align 4
  %249 = sext i32 %248 to i64
  %250 = getelementptr inbounds [16 x ptr], ptr %13, i64 0, i64 %249
  store ptr null, ptr %250, align 8
  br label %251

251:                                              ; preds = %238
  %252 = load i32, ptr %16, align 4
  %253 = add nsw i32 %252, 1
  store i32 %253, ptr %16, align 4
  br label %234, !llvm.loop !50

254:                                              ; preds = %234
  br label %255

255:                                              ; preds = %254, %149, %122, %111, %102, %51, %42
  br label %256

256:                                              ; preds = %255
  %257 = load ptr, ptr %11, align 8
  %258 = getelementptr inbounds [16 x ptr], ptr %13, i64 0, i64 0
  %259 = load ptr, ptr %258, align 16
  call void @ft_mem_free(ptr noundef %257, ptr noundef %259)
  %260 = getelementptr inbounds [16 x ptr], ptr %13, i64 0, i64 0
  store ptr null, ptr %260, align 16
  br label %261

261:                                              ; preds = %256
  %262 = load i32, ptr %12, align 4
  %263 = load ptr, ptr %6, align 8
  %264 = getelementptr inbounds %struct.T1_Loader_, ptr %263, i32 0, i32 0
  %265 = getelementptr inbounds %struct.T1_ParserRec_, ptr %264, i32 0, i32 0
  %266 = getelementptr inbounds %struct.PS_ParserRec_, ptr %265, i32 0, i32 3
  store i32 %262, ptr %266, align 8
  ret void
}