; Function Attrs: nounwind uwtable
define internal void @parse_blend_design_positions(ptr noundef %0, ptr noundef %1) #2 {
  %3 = alloca [16 x %struct.T1_TokenRec_], align 16
  %4 = alloca i32, align 4
  %5 = alloca i32, align 4
  %6 = alloca [16 x ptr], align 16
  %7 = alloca [4 x %struct.T1_TokenRec_], align 16
  %8 = alloca i32, align 4
  %9 = getelementptr inbounds i8, ptr %0, i64 184
  %10 = load ptr, ptr %9, align 8
  store i32 0, ptr %5, align 4
  store ptr null, ptr %6, align 16
  %11 = getelementptr inbounds i8, ptr %1, i64 120
  %12 = load ptr, ptr %11, align 8
  call void %12(ptr noundef %1, ptr noundef nonnull %3, i32 noundef 16, ptr noundef nonnull %4) #16
  %13 = load i32, ptr %4, align 4
  %14 = icmp slt i32 %13, 0
  br i1 %14, label %15, label %16

15:                                               ; preds = %2
  store i32 162, ptr %5, align 4
  br label %.loopexit

16:                                               ; preds = %2
  %17 = add nsw i32 %13, -17
  %or.cond = icmp ult i32 %17, -16
  br i1 %or.cond, label %18, label %.lr.ph76

18:                                               ; preds = %16
  store i32 3, ptr %5, align 4
  br label %.loopexit

.lr.ph76:                                         ; preds = %16
  %19 = load ptr, ptr %1, align 8
  %20 = getelementptr inbounds i8, ptr %1, i64 16
  %21 = load ptr, ptr %20, align 8
  %22 = getelementptr inbounds i8, ptr %1, i64 80
  br label %23

23:                                               ; preds = %.lr.ph76, %._crit_edge
  %24 = phi ptr [ null, %.lr.ph76 ], [ %53, %._crit_edge ]
  %indvars.iv86 = phi i64 [ 0, %.lr.ph76 ], [ %indvars.iv.next87, %._crit_edge ]
  %.074 = phi i32 [ 0, %.lr.ph76 ], [ %.1, %._crit_edge ]
  %25 = getelementptr inbounds %struct.T1_TokenRec_, ptr %3, i64 %indvars.iv86
  %26 = load ptr, ptr %25, align 8
  store ptr %26, ptr %1, align 8
  %27 = getelementptr inbounds i8, ptr %25, i64 8
  %28 = load ptr, ptr %27, align 8
  store ptr %28, ptr %20, align 8
  %29 = load ptr, ptr %11, align 8
  call void %29(ptr noundef nonnull %1, ptr noundef nonnull %7, i32 noundef 4, ptr noundef nonnull %8) #16
  %30 = icmp eq i64 %indvars.iv86, 0
  %31 = load i32, ptr %8, align 4
  br i1 %30, label %32, label %50

32:                                               ; preds = %23
  %33 = add i32 %31, -5
  %or.cond3 = icmp ult i32 %33, -4
  br i1 %or.cond3, label %34, label %35

34:                                               ; preds = %32
  store i32 3, ptr %5, align 4
  br label %.loopexit

35:                                               ; preds = %32
  %36 = load i32, ptr %4, align 4
  %37 = call fastcc i32 @t1_allocate_blend(ptr noundef %0, i32 noundef %36, i32 noundef %31)
  store i32 %37, ptr %5, align 4
  %.not66 = icmp eq i32 %37, 0
  br i1 %.not66, label %38, label %.loopexit

38:                                               ; preds = %35
  %39 = load i32, ptr %4, align 4
  %40 = mul nsw i32 %39, %31
  %41 = sext i32 %40 to i64
  %42 = call ptr @ft_mem_qrealloc(ptr noundef %10, i64 noundef 8, i64 noundef 0, i64 noundef %41, ptr noundef null, ptr noundef nonnull %5) #16
  store ptr %42, ptr %6, align 16
  %43 = load i32, ptr %5, align 4
  %.not67 = icmp eq i32 %43, 0
  br i1 %.not67, label %.preheader, label %.loopexit

.preheader:                                       ; preds = %38
  %44 = load i32, ptr %4, align 4
  %45 = icmp sgt i32 %44, 1
  br i1 %45, label %.lr.ph.preheader, label %.loopexit68thread-pre-split

.lr.ph.preheader:                                 ; preds = %.preheader
  %46 = zext nneg i32 %31 to i64
  %wide.trip.count = zext nneg i32 %44 to i64
  br label %.lr.ph

.lr.ph:                                           ; preds = %.lr.ph.preheader, %.lr.ph
  %indvars.iv = phi i64 [ 1, %.lr.ph.preheader ], [ %indvars.iv.next, %.lr.ph ]
  %47 = mul nuw nsw i64 %indvars.iv, %46
  %48 = getelementptr inbounds i64, ptr %42, i64 %47
  %49 = getelementptr inbounds [16 x ptr], ptr %6, i64 0, i64 %indvars.iv
  store ptr %48, ptr %49, align 8
  %indvars.iv.next = add nuw nsw i64 %indvars.iv, 1
  %exitcond.not = icmp eq i64 %indvars.iv.next, %wide.trip.count
  br i1 %exitcond.not, label %.loopexit68thread-pre-split, label %.lr.ph, !llvm.loop !43

50:                                               ; preds = %23
  %.not65 = icmp eq i32 %31, %.074
  br i1 %.not65, label %.loopexit68, label %51

51:                                               ; preds = %50
  store i32 3, ptr %5, align 4
  br label %.loopexit

.loopexit68thread-pre-split:                      ; preds = %.lr.ph, %.preheader
  %.pr = load i32, ptr %8, align 4
  br label %.loopexit68

.loopexit68:                                      ; preds = %.loopexit68thread-pre-split, %50
  %52 = phi i32 [ %.pr, %.loopexit68thread-pre-split ], [ %31, %50 ]
  %53 = phi ptr [ %42, %.loopexit68thread-pre-split ], [ %24, %50 ]
  %.1 = phi i32 [ %31, %.loopexit68thread-pre-split ], [ %.074, %50 ]
  %54 = icmp sgt i32 %52, 0
  br i1 %54, label %.lr.ph72, label %._crit_edge

.lr.ph72:                                         ; preds = %.loopexit68
  %55 = getelementptr inbounds [16 x ptr], ptr %6, i64 0, i64 %indvars.iv86
  br label %56

56:                                               ; preds = %.lr.ph72, %56
  %indvars.iv83 = phi i64 [ 0, %.lr.ph72 ], [ %indvars.iv.next84, %56 ]
  %57 = getelementptr inbounds %struct.T1_TokenRec_, ptr %7, i64 %indvars.iv83
  %58 = load ptr, ptr %57, align 8
  store ptr %58, ptr %1, align 8
  %59 = getelementptr inbounds i8, ptr %57, i64 8
  %60 = load ptr, ptr %59, align 8
  store ptr %60, ptr %20, align 8
  %61 = load ptr, ptr %22, align 8
  %62 = call i64 %61(ptr noundef nonnull %1, i32 noundef 0) #16
  %63 = load ptr, ptr %55, align 8
  %64 = getelementptr inbounds i64, ptr %63, i64 %indvars.iv83
  store i64 %62, ptr %64, align 8
  %indvars.iv.next84 = add nuw nsw i64 %indvars.iv83, 1
  %65 = load i32, ptr %8, align 4
  %66 = sext i32 %65 to i64
  %67 = icmp slt i64 %indvars.iv.next84, %66
  br i1 %67, label %56, label %._crit_edge, !llvm.loop !44

._crit_edge:                                      ; preds = %56, %.loopexit68
  %indvars.iv.next87 = add nuw nsw i64 %indvars.iv86, 1
  %68 = load i32, ptr %4, align 4
  %69 = sext i32 %68 to i64
  %70 = icmp slt i64 %indvars.iv.next87, %69
  br i1 %70, label %23, label %._crit_edge77, !llvm.loop !45

._crit_edge77:                                    ; preds = %._crit_edge
  store ptr %19, ptr %1, align 8
  store ptr %21, ptr %20, align 8
  %71 = getelementptr inbounds i8, ptr %0, i64 848
  %72 = load ptr, ptr %71, align 8
  %73 = getelementptr inbounds i8, ptr %72, i64 40
  %74 = load ptr, ptr %73, align 8
  %.not = icmp eq ptr %74, null
  br i1 %.not, label %76, label %75

75:                                               ; preds = %._crit_edge77
  call void @ft_mem_free(ptr noundef %10, ptr noundef nonnull %74) #16
  store ptr null, ptr %73, align 8
  %.pre = load i32, ptr %4, align 4
  br label %76

76:                                               ; preds = %75, %._crit_edge77
  %77 = phi i32 [ %.pre, %75 ], [ %68, %._crit_edge77 ]
  %78 = icmp sgt i32 %77, 0
  br i1 %78, label %.lr.ph80.preheader, label %.loopexit

.lr.ph80.preheader:                               ; preds = %76
  %wide.trip.count92 = zext nneg i32 %77 to i64
  br label %.lr.ph80

.lr.ph80:                                         ; preds = %.lr.ph80.preheader, %.lr.ph80
  %indvars.iv89 = phi i64 [ 0, %.lr.ph80.preheader ], [ %indvars.iv.next90, %.lr.ph80 ]
  %79 = getelementptr inbounds [16 x ptr], ptr %6, i64 0, i64 %indvars.iv89
  %80 = load ptr, ptr %79, align 8
  %81 = getelementptr inbounds [16 x ptr], ptr %73, i64 0, i64 %indvars.iv89
  store ptr %80, ptr %81, align 8
  store ptr null, ptr %79, align 8
  %indvars.iv.next90 = add nuw nsw i64 %indvars.iv89, 1
  %exitcond93.not = icmp eq i64 %indvars.iv.next90, %wide.trip.count92
  br i1 %exitcond93.not, label %.loopexit.loopexit, label %.lr.ph80, !llvm.loop !46

.loopexit.loopexit:                               ; preds = %.lr.ph80
  %.pre94 = load ptr, ptr %6, align 16
  br label %.loopexit

.loopexit:                                        ; preds = %35, %38, %.loopexit.loopexit, %76, %15, %18, %34, %51
  %82 = phi ptr [ %.pre94, %.loopexit.loopexit ], [ %53, %76 ], [ null, %15 ], [ null, %18 ], [ %24, %34 ], [ %24, %51 ], [ %24, %35 ], [ %42, %38 ]
  call void @ft_mem_free(ptr noundef %10, ptr noundef %82) #16
  %83 = load i32, ptr %5, align 4
  %84 = getelementptr inbounds i8, ptr %1, i64 24
  store i32 %83, ptr %84, align 8
  ret void
}